target datalayout = "e-m:e-p270:32:32-p271:32:32-p272:64:64-i64:64-i128:128-f80:128-n8:16:32:64-S128"
target triple = "x86_64-unknown-linux-gnu"

%"class.google::protobuf::internal::InternalMetadata" = type { i64 }
%"class.google::protobuf::MessageLite" = type { ptr, %"class.google::protobuf::internal::InternalMetadata" }

; Function Attrs: mustprogress nounwind uwtable
define linkonce_odr hidden void @_ZN6google8protobuf11MessageLiteD2Ev(ptr noundef nonnull align 8 dereferenceable(16) %this) unnamed_addr #5 comdat align 2 {
entry:
  %this.addr = alloca ptr, align 8
  store ptr %this, ptr %this.addr, align 8
  ret void
}

; Function Attrs: mustprogress nounwind uwtable
define linkonce_odr hidden void @_ZN6google8protobuf7MessageD2Ev(ptr noundef nonnull align 8 dereferenceable(16) %this) unnamed_addr #5 comdat align 2 {
entry:
  %this.addr = alloca ptr, align 8
  store ptr %this, ptr %this.addr, align 8
  %this1 = load ptr, ptr %this.addr, align 8
  call void @_ZN6google8protobuf11MessageLiteD2Ev(ptr noundef nonnull align 8 dereferenceable(16) %this1) #3
  ret void
}

; Function Attrs: mustprogress nounwind uwtable
define linkonce_odr hidden void @_ZN6google8protobuf8Duration10SharedDtorEv(ptr noundef nonnull align 8 dereferenceable(32) %this) #5 comdat align 2 {
entry:
  %this.addr = alloca ptr, align 8
  store ptr %this, ptr %this.addr, align 8
  ret void
}

; Function Attrs: mustprogress uwtable
define linkonce_odr hidden void @_ZN6google8protobuf8internal16InternalMetadata6DeleteINS0_15UnknownFieldSetEEEvv(ptr noundef nonnull align 8 dereferenceable(8) %this) #4 comdat align 2 {
entry:
  %this.addr.i2 = alloca ptr, align 8
  %this.addr.i = alloca ptr, align 8
  %this.addr = alloca ptr, align 8
  store ptr %this, ptr %this.addr, align 8
  %this1 = load ptr, ptr %this.addr, align 8
  store ptr %this1, ptr %this.addr.i, align 8
  %this1.i = load ptr, ptr %this.addr.i, align 8
  store ptr %this1.i, ptr %this.addr.i2, align 8
  %this1.i3 = load ptr, ptr %this.addr.i2, align 8
  %0 = load i64, ptr %this1.i3, align 8
  %and.i = and i64 %0, 1
  %tobool.i = icmp ne i64 %and.i, 0
  br i1 %tobool.i, label %if.then, label %if.end

if.then:                                          ; preds = %entry
  call void @_ZN6google8protobuf8internal16InternalMetadata21DeleteOutOfLineHelperINS0_15UnknownFieldSetEEEvv(ptr noundef nonnull align 8 dereferenceable(8) %this1)
  br label %if.end

if.end:                                           ; preds = %if.then, %entry
  ret void
}

; Function Attrs: mustprogress nounwind uwtable
define void @_ZN6google8protobuf8DurationD2Ev(ptr noundef nonnull align 8 dereferenceable(32) %this) unnamed_addr #5 align 2 personality ptr @__gxx_personality_v0 {
entry:
  %this.addr = alloca ptr, align 8
  store ptr %this, ptr %this.addr, align 8
  %this1 = load ptr, ptr %this.addr, align 8
  %_internal_metadata_ = getelementptr inbounds %"class.google::protobuf::MessageLite", ptr %this1, i32 0, i32 1
  invoke void @_ZN6google8protobuf8internal16InternalMetadata6DeleteINS0_15UnknownFieldSetEEEvv(ptr noundef nonnull align 8 dereferenceable(8) %_internal_metadata_)
          to label %invoke.cont unwind label %terminate.lpad

invoke.cont:                                      ; preds = %entry
  invoke void @_ZN6google8protobuf8Duration10SharedDtorEv(ptr noundef nonnull align 8 dereferenceable(32) %this1)
          to label %invoke.cont2 unwind label %terminate.lpad

invoke.cont2:                                     ; preds = %invoke.cont
  call void @_ZN6google8protobuf7MessageD2Ev(ptr noundef nonnull align 8 dereferenceable(16) %this1) #3
  ret void

terminate.lpad:                                   ; preds = %invoke.cont, %entry
  %0 = landingpad { ptr, i32 }
          catch ptr null
  %1 = extractvalue { ptr, i32 } %0, 0
  call void @__clang_call_terminate(ptr %1) #13
  unreachable
}